; Function Attrs: nounwind uwtable
define i32 @nghttp2_submit_goaway(ptr noundef %0, i8 noundef zeroext %1, i32 noundef %2, i32 noundef %3, ptr noundef %4, i64 noundef %5) local_unnamed_addr #0 {
  %7 = getelementptr inbounds nuw i8, ptr %0, i64 2676
  %8 = load i8, ptr %7, align 4, !tbaa !40
  %9 = and i8 %8, 1
  %.not = icmp eq i8 %9, 0
  br i1 %.not, label %10, label %12

10:                                               ; preds = %6
  %11 = tail call i32 @nghttp2_session_add_goaway(ptr noundef nonnull %0, i32 noundef %2, i32 noundef %3, ptr noundef %4, i64 noundef %5, i8 noundef zeroext 0) #8
  br label %12

12:                                               ; preds = %6, %10
  %.0 = phi i32 [ %11, %10 ], [ 0, %6 ]
  ret i32 %.0
}